(dp1
S'picture'
p2
S'VARCHAR(512)'
p3
sS'short_name'
p4
S'VARCHAR(32)'
p5
sS'rating'
p6
S'INTEGER'
p7
sS'email'
p8
S'VARCHAR(64) NOT NULL'
p9
sS'long_name'
p10
S'VARCHAR(128) NOT NULL'
p11
sS'password'
p12
S'VARCHAR(32)'
p13
sS'id'
p14
S'SERIAL PRIMARY KEY'
p15
s.