(dp1
S'picture'
p2
S'VARCHAR(512)'
p3
sS'short_name'
p4
S'VARCHAR(32)'
p5
sS'grade'
p6
S'INTEGER'
p7
sS'id'
p8
S'SERIAL PRIMARY KEY'
p9
sS'full_name'
p10
S'VARCHAR(128) NOT NULL'
p11
sS'password'
p12
S'VARCHAR(32) NOT NULL'
p13
sS'email'
p14
S'VARCHAR(64) NOT NULL UNIQUE'
p15
s.