(dp1
S'picture'
p2
S'VARCHAR(512)'
p3
sS'short_name'
p4
S'VARCHAR(32)'
p5
sS'email'
p6
S'VARCHAR(64) NOT NULL'
p7
sS'long_name'
p8
S'VARCHAR(128) NOT NULL'
p9
sS'password'
p10
S'VARCHAR(32)'
p11
sS'id'
p12
S'SERIAL PRIMARY KEY'
p13
s.