(dp1
S'avaliacao_id'
p2
S'INTEGER REFERENCES avaliacoes(id) ON DELETE CASCADE'
p3
sS'id'
p4
S'SERIAL PRIMARY KEY'
p5
sS'value'
p6
S'CHAR(1)'
p7
sS'aluno_id'
p8
S'INTEGER REFERENCES alunos(id) ON DELETE CASCADE'
p9
s.