(dp1
S'output'
p2
S''
sS'layer'
p3
S'/home/tiago/web2py/applications/ForCA/models/models.py'
p4
sS'code'
p5
S"db = DAL('postgres://forca:xx@localhost/forca')\n\n#Tabela Alunos\ndb.define_table(\n\t\t'alunos',\n\t\tField('email', 'string', length=64, required=True, notnull=True,\n\t\t\trequires=IS_EMAIL())),\n\t\tField('name', 'string', length=128),\n\t\tField('password', 'password', length=32, required=True, notnull=True))\n\n#Tabela Disciplinas\ndb.define_table(\n\t\t'disciplinas',\n\t\tField('name', 'string', length=128, required=True, notnull=True),\n\t\tField('code', 'string', length=8, required=True, notnull=True))\n\n#Tabela Professores\ndb.define_table(\n\t\t'professores',\n\t\tField('email', 'string', length=64, required=True, notnull=True,\n\t\t\trequires = IS_EMAIL()),\n\t\tField('short_name', 'string', length=32),\n\t\tField('long_name', 'string', length=128, required=True, notnull=True),\n\t\tField('password', 'string', length=32),\n\t\tField('rating', 'integer', length=1,\n\t\t\trequires = IS_INT_IN_RANGE(1,5)),\n\t\tField('picture', 'upload'))\n\n#Tabela Avaliacoes\ndb.define_table(\n\t\t'avaliacoes',\n\t\tField('aluno_id', db.alunos, required=True, notnull=True,\n\t\t\twritable = False, readable = False,\n\t\t\trequires = IS_IN_DB(db, db.alunos.id, '')),\n\t\tField('disciplina_id', db.disciplinas, required=True, notnull=True,\n\t\t\twritable = False, readable = False,\n\t\t\trequires = IS_IN_DB(db, db.disciplinas.id, '')),\n\t\tField('professor_id', db.professores, required=True, notnull=True,\n\t\t\twritable = False, readable = False,\n\t\t\trequires = IS_IN_DB(db, db.professores.id, '')),\n\t\tField('year', 'integer', length=4,\n\t\t\trequires = IS_INT_IN_RANGE(1970,9999)),\n\t\tField('semester', 'integer', length=1,\n\t\t\trequires = IS_INT_IN_RANGE(1,2)),\n\t\tField('grade', 'integer', length=1, required=True, notnull=True,\n\t\t\trequires = IS_INT_IN_RANGE(1,5)),\n\t\tField('geral_grade', 'integer', length=1,\n\t\t\trequires = IS_INT_IN_RANGE(1,5)),\n\t\tField('geral_comment', 'string', length=2048),\n\t\tField('didatica_grade', 'integer', length=1,\n\t\t\trequires = IS_INT_IN_RANGE(1,5)),\n\t\tField('didatica_comment', 'string', length=2048),\n\t\tField('dinamica_grade', 'integer', length=1,\n\t\t\trequires = IS_INT_IN_RANGE(1,5)),\n\t\tField('dinamica_comment', 'integer', length=2048),\n\t\tField('avaliacao_grade', 'integer', length=1,\n\t\t\trequires = IS_INT_IN_RANGE(1,5)),\n\t\tField('avaliacao_comment', 'string', length=2048),\n\t\tField('disponibilidade_grade', 'integer', length=1,\n\t\t\trequires = IS_INT_IN_RANGE(1,5)),\n\t\tField('disponibilidade_comment', 'string', length=2048))\n\n"
p6
sS'snapshot'
p7
(dp8
S'exception'
p9
(dp10
S'__getslice__'
p11
S"<method-wrapper '__getslice__' of exceptions.IndentationError object>"
p12
sS'text'
p13
S'"\\t\\tField(\'name\', \'string\', length=128),\\n"'
p14
sS'__str__'
p15
S"<method-wrapper '__str__' of exceptions.IndentationError object>"
p16
sS'__reduce__'
p17
S'<built-in method __reduce__ of exceptions.IndentationError object>'
p18
sS'__dict__'
p19
S'{}'
p20
sS'__sizeof__'
p21
S'<built-in method __sizeof__ of exceptions.IndentationError object>'
p22
sS'__init__'
p23
S"<method-wrapper '__init__' of exceptions.IndentationError object>"
p24
sS'__setattr__'
p25
S"<method-wrapper '__setattr__' of exceptions.IndentationError object>"
p26
sS'__reduce_ex__'
p27
S'<built-in method __reduce_ex__ of exceptions.IndentationError object>'
p28
sS'__new__'
p29
S'<built-in method __new__ of type object>'
p30
sS'__format__'
p31
S'<built-in method __format__ of exceptions.IndentationError object>'
p32
sS'__class__'
p33
S"<type 'exceptions.IndentationError'>"
p34
sS'filename'
p35
S"'/home/tiago/web2py/applications/ForCA/models/models.py'"
p36
sS'lineno'
p37
S'8'
sS'msg'
p38
S"'unexpected indent'"
p39
sS'__doc__'
p40
S"'Improper indentation.'"
p41
sS'__getitem__'
p42
S"<method-wrapper '__getitem__' of exceptions.IndentationError object>"
p43
sS'__setstate__'
p44
S'<built-in method __setstate__ of exceptions.IndentationError object>'
p45
sS'__getattribute__'
p46
S"<method-wrapper '__getattribute__' of exceptions.IndentationError object>"
p47
sS'print_file_and_line'
p48
S'None'
p49
sS'args'
p50
S'(\'unexpected indent\', (\'/home/tiago/web2py/applications/ForCA/models/models.py\', 8, 2, "\\t\\tField(\'name\', \'string\', length=128),\\n"))'
p51
sS'__subclasshook__'
p52
S'<built-in method __subclasshook__ of type object>'
p53
sS'offset'
p54
S'2'
sS'__unicode__'
p55
S'<built-in method __unicode__ of exceptions.IndentationError object>'
p56
sS'__delattr__'
p57
S"<method-wrapper '__delattr__' of exceptions.IndentationError object>"
p58
sS'__repr__'
p59
S"<method-wrapper '__repr__' of exceptions.IndentationError object>"
p60
sS'__hash__'
p61
S"<method-wrapper '__hash__' of exceptions.IndentationError object>"
p62
ssS'evalue'
p63
S'unexpected indent (models.py, line 8)'
p64
sS'request'
p65
(dp66
S'function'
p67
S"'index'"
p68
sS'body'
p69
S'<cStringIO.StringO object>'
p70
sS'wsgi'
p71
S"<Storage {'start_response': <function <lambda> a...ING': 'gzip,deflate', 'HTTP_KEEP_ALIVE': '115'}}>"
p72
sS'extension'
p73
S"'html'"
p74
sS'vars'
p75
S'<Storage {}>'
p76
sS'cid'
p77
S'None'
p78
sS'url'
p79
S"'/ForCA/default/index'"
p80
sg50
S'[]'
p81
sS'controller'
p82
S"'default'"
p83
sS'cookies'
p84
S"<SimpleCookie: session_id_ForCA='127-0-0-1-9f8d9...'127-0-0-1-3835ea12-86a2-4dae-95dc-fe0b3f86823c'>"
p85
sS'application'
p86
S"'ForCA'"
p87
sS'ajax'
p88
S'False'
p89
sS'client'
p90
S"'127.0.0.1'"
p91
sS'env'
p92
S"<Storage {'http_user_agent': 'Mozilla/5.0 (X11; ...ce': False, 'path_info': '/ForCA/default/index'}>"
p93
sS'raw_args'
p94
S'None'
p95
sS'get_vars'
p96
S'<Storage {}>'
p97
sS'folder'
p98
S"'/home/tiago/web2py/applications/ForCA/'"
p99
sS'now'
p100
S'datetime.datetime(2010, 9, 1, 0, 31, 40, 40028)'
p101
sS'post_vars'
p102
S'<Storage {}>'
p103
ssS'frames'
p104
(lp105
(dp106
S'file'
p107
S'/home/tiago/web2py/gluon/restricted.py'
p108
sS'dump'
p109
(dp110
S'code'
p111
S'"db = DAL(\'postgres://forca:xx@localhost/forca\')\\n...sponibilidade_comment\', \'string\', length=2048))\\n\\n"'
p112
sS'layer'
p113
S"'/home/tiago/web2py/applications/ForCA/models/models.py'"
p114
sS'global compile2'
p115
S'<function compile2>'
p116
sS'ccode'
p117
S'undefined'
p118
ssS'lnum'
p119
I184
sS'lines'
p120
(dp121
I179
S''
sI180
S'    try:'
p122
sI181
S'        if type(code) == types.CodeType:'
p123
sI182
S'            ccode = code'
p124
sI183
S'        else:'
p125
sI184
S'            ccode = compile2(code,layer)'
p126
sI185
S''
sI186
S'        exec ccode in environment'
p127
sI187
S'    except HTTP:'
p128
sI188
S'        raise'
p129
ssS'call'
p130
S'(code="db = DAL(\'postgres://forca:xx@localhost/forca\')\\n...sponibilidade_comment\', \'string\', length=2048))\\n\\n", environment={\'A\': <class \'gluon.html.A\'>, \'Auth\': <class \'gluon.tools.Auth\'>, \'B\': <class \'gluon.html.B\'>, \'BEAUTIFY\': <class \'gluon.html.BEAUTIFY\'>, \'BODY\': <class \'gluon.html.BODY\'>, \'BR\': <class \'gluon.html.BR\'>, \'CENTER\': <class \'gluon.html.CENTER\'>, \'CLEANUP\': <class \'gluon.validators.CLEANUP\'>, \'CODE\': <class \'gluon.html.CODE\'>, \'CRYPT\': <class \'gluon.validators.CRYPT\'>, ...}, layer=\'/home/tiago/web2py/applications/ForCA/models/models.py\')'
p131
sS'func'
p132
S'restricted'
p133
sa(dp134
g107
S'/home/tiago/web2py/gluon/restricted.py'
p135
sg109
(dp136
S'builtincompile'
p137
S'<built-in function compile>'
p138
sS'code'
p139
S'"db = DAL(\'postgres://forca:xx@localhost/forca\')\\n...sponibilidade_comment\', \'string\', length=2048))\\n\\n"'
p140
sS'code.rstrip'
p141
S'<built-in method rstrip of str object>'
p142
sS').replace'
p143
g118
sS'layer'
p144
S"'/home/tiago/web2py/applications/ForCA/models/models.py'"
p145
ssg119
I171
sg120
(dp146
I166
S''
sI167
S'def compile2(code,layer):'
p147
sI168
S'    """'
p148
sI169
S"    The +'\\n' is necessary else compile fails when code ends in a comment."
p149
sI170
S'    """'
p150
sI171
S"    return compile(code.rstrip().replace('\\r\\n','\\n')+'\\n', layer, 'exec')"
p151
sI172
S''
sI173
S"def restricted(code, environment={}, layer='Unknown'):"
p152
sI174
S'    """'
p153
sI175
S'    runs code in environment and returns the output. if an exception occurs'
p154
ssg130
S'(code="db = DAL(\'postgres://forca:xx@localhost/forca\')\\n...sponibilidade_comment\', \'string\', length=2048))\\n\\n", layer=\'/home/tiago/web2py/applications/ForCA/models/models.py\')'
p155
sg132
S'compile2'
p156
sasS'pyver'
p157
S'Python 2.6.5: /usr/bin/python'
p158
sS'session'
p159
(dp160
S'auth'
p161
S'None'
p162
ssS'etype'
p163
S"<type 'exceptions.IndentationError'>"
p164
sS'date'
p165
S'Wed Sep  1 00:31:40 2010'
p166
sS'response'
p167
(dp168
S'status'
p169
S'200'
p170
sg69
S'<cStringIO.StringO object>'
p171
sg84
S"<SimpleCookie: session_id_ForCA='127-0-0-1-1e1dae6e-96f1-441a-bfa9-2df4f22c27f3'>"
p172
sS'_vars'
p173
S'None'
p174
sS'title'
p175
S"'ForCA'"
p176
sS'menu'
p177
S"[(<lazyT 'Index'>, False, '/ForCA/default/index', []), (<lazyT 'Edit'>, False, '/admin/default/design/ForCA', [(<lazyT 'Controller'>, False, '/admin/default/edit/ForCA/controllers/default.py'), (<lazyT 'View'>, False, '/admin/default/edit/ForCA/views/default/index.html'), (<lazyT 'Layout'>, False, '/admin/default/edit/ForCA/views/layout.html'), (<lazyT 'Stylesheet'>, False, '/admin/default/edit/ForCA/static/base.css'), (<lazyT 'DB Model'>, False, '/admin/default/edit/ForCA/models/db.py'), (<lazyT 'Menu Model'>, False, '/admin/default/edit/ForCA/models/menu.py'), (<lazyT 'Database'>, False, '/ForCA/appadmin/index')])]"
p178
sS'flash'
p179
S"''"
p180
sS'session_new'
p181
S'True'
p182
sS'_custom_rollback'
p183
S'None'
p184
sS'session_id'
p185
S"'127-0-0-1-1e1dae6e-96f1-441a-bfa9-2df4f22c27f3'"
p186
sS'headers'
p187
S"<Storage {'Expires': 'Wed, 01 Sep 2010 03:31:40 ...he, must-revalidate, post-check=0, pre-check=0'}>"
p188
sS'meta'
p189
S"<Storage {'keywords': 'bla bla bla', 'description': 'describe your app', 'author': 'you'}>"
p190
sS'session_filename'
p191
S"'/home/tiago/web2py/applications/ForCA/sessions/127-0-0-1-1e1dae6e-96f1-441a-bfa9-2df4f22c27f3'"
p192
sS'postprocessing'
p193
S'[]'
p194
sS'_caller'
p195
S'<function <lambda>>'
p196
sS'_view_environment'
p197
S"{'A': <class 'gluon.html.A'>, 'B': <class 'gluon.html.B'>, 'BEAUTIFY': <class 'gluon.html.BEAUTIFY'>, 'BODY': <class 'gluon.html.BODY'>, 'BR': <class 'gluon.html.BR'>, 'CENTER': <class 'gluon.html.CENTER'>, 'CLEANUP': <class 'gluon.validators.CLEANUP'>, 'CODE': <class 'gluon.html.CODE'>, 'CRYPT': <class 'gluon.validators.CRYPT'>, 'DAL': <function DAL>, ...}"
p198
sS'subtitle'
p199
S"<lazyT 'customize me!'>"
p200
sS'session_id_name'
p201
S"'session_id_ForCA'"
p202
sS'_custom_commit'
p203
S'None'
p204
sS'files'
p205
S'[]'
p206
sS'view'
p207
S"'default/index.html'"
p208
ssS'locals'
p209
(dp210
g3
S"'/home/tiago/web2py/applications/ForCA/models/models.py'"
p211
sg5
S'"db = DAL(\'postgres://forca:xx@localhost/forca\')\\n...sponibilidade_comment\', \'string\', length=2048))\\n\\n"'
p212
sssS'traceback'
p213
S'Traceback (most recent call last):\n  File "/home/tiago/web2py/gluon/restricted.py", line 184, in restricted\n    ccode = compile2(code,layer)\n  File "/home/tiago/web2py/gluon/restricted.py", line 171, in compile2\n    return compile(code.rstrip().replace(\'\\r\\n\',\'\\n\')+\'\\n\', layer, \'exec\')\n  File "/home/tiago/web2py/applications/ForCA/models/models.py", line 8\n    Field(\'name\', \'string\', length=128),\n   ^\nIndentationError: unexpected indent\n'
p214
s.