(dp1
S'output'
p2
S'missing "pass" in view'
p3
sS'layer'
p4
S'ParserContainer'
p5
sS'code'
p6
S"response.write('<html>\\n\\t<head>\\n\\t\\t<title>ForCA - Lista de professores</title>\\n\\t</head>\\n\\t<body>\\n\\t\\t<table>\\n\\t\\t\\t<tr>\\n\\t\\t\\t\\t<th>Nome</th>\\n\\t\\t\\t\\t<th>E-mail</th>\\n\\t\\t\\t</tr>\\n\\t\\t\\t', escape=False)\nfor prof in profs:\n    response.write('\\n\\t\\t\\t<tr>\\n\\t\\t\\t\\t<td>', escape=False)\n    prof.long_name\n    response.write('</td>\\n\\t\\t\\t\\t<td>', escape=False)\n    prof.email\n    response.write('</td>\\n\\t\\t\\t</tr>\\n\\t\\t</table>\\n\\t</body>\\n</html>\\n\\n', escape=False)"
p7
sS'snapshot'
p8
(dp9
sS'traceback'
p10
S'None\n'
p11
s.