(dp1
S'output'
p2
S''
sS'layer'
p3
S'/home/tiago/ForCA/applications/ForCA/controllers/profs.py'
p4
sS'code'
p5
S"#profs controller\n\ndef list():\n\t'''\n\tExibe a lista de professores\n\t'''\n\treturn db.professores.select()\n\nresponse._vars=response._caller(list)\n"
p6
sS'snapshot'
p7
(dp8
sS'traceback'
p9
S'Traceback (most recent call last):\n  File "/home/tiago/ForCA/gluon/restricted.py", line 186, in restricted\n    exec ccode in environment\n  File "/home/tiago/ForCA/applications/ForCA/controllers/profs.py", line 9, in <module>\n  File "/home/tiago/ForCA/gluon/globals.py", line 96, in <lambda>\n    self._caller = lambda f: f()\n  File "/home/tiago/ForCA/applications/ForCA/controllers/profs.py", line 7, in list\n    return db.professores.select()\n  File "/home/tiago/ForCA/gluon/sql.py", line 1677, in __getattr__\n    return dict.__getitem__(self,key)\nKeyError: \'select\'\n'
p10
s.