(dp1
S'output'
p2
S''
sS'layer'
p3
S'/home/tiago/Desktop/web2py/web2py/applications/forca/models/models.py'
p4
sS'code'
p5
S"db = DAL('postgres://web2py:xx@localhost/web2py')\n\n#Tabela Alunos\ndb.define_table(\n\t\t'alunos',\n\t\tField('email', 'string', length=64, required=True, notnull=True,\n\t\t\trequires=IS_EMAIL()),\n\t\tField('name', 'string', length=128),\n\t\tField('password', 'password', length=32, required=True, notnull=True))\n\n#Tabela Disciplinas\ndb.define_table(\n\t\t'disciplinas',\n\t\tField('name', 'string', length=128, required=True, notnull=True),\n\t\tField('code', 'string', length=8, required=True, notnull=True))\n\n#Tabela Professores\ndb.define_table(\n\t\t'professores',\n\t\tField('email', 'string', length=64, required=True, notnull=True,\n\t\t\trequires = IS_EMAIL()),\n\t\tField('short_name', 'string', length=32),\n\t\tField('long_name', 'string', length=128, required=True, notnull=True),\n\t\tField('password', 'string', length=32))\n\n#Tabela Avaliacoes\ndb.define_table(\n\t\t'avaliacoes',\n\t\tField('aluno_id', db.alunos.id, required=True, notnull=True,\n\t\t\trequires = IS_IN_DB(db, db.alunos.id, ''),\n\t\t\twritable = False, readable = False),\n\t\tField('disciplina_id', db.disciplinas.id, required=True, notnull=True,\n\t\t\trequires = IS_IN_DB(db, db.disciplinas.id, ''),\n\t\t\twritable = False, readable = False),\n\t\tField('professor_id', db.professores.id, required=True, notnull=True,\n\t\t\trequires = IS_IN_DB(db, db.professores.id, ''),\n\t\t\twritable = False, readable = false),\n\t\tField('year', 'integer', length=4,\n\t\t\trequires = IS_INT_IN_RANGE(1970,9999)),\n\t\tField('semester', 'integer', length=1,\n\t\t\trequires = IS_INT_IN_RANGE(1,2)),\n\t\tField('grade', 'integer', length=1, required=True, notnull=True,\n\t\t\trequires = IS_INT_IN_RANGE(1,5)),\n\t\tField('geral_grade', 'integer', length=1,\n\t\t\trequires = IS_INT_IN_RANGE(1,5)),\n\t\tField('geral_comment', 'string', length=2048),\n\t\tField('didatica_grade', 'integer', length=1,\n\t\t\trequires = IS_INT_IN_RANGE(1,5)),\n\t\tField('didatica_comment', 'string', length=2048),\n\t\tField('dinamica_grade', 'integer', length=1,\n\t\t\trequires = IS_INT_IN_RANGE(1,5)),\n\t\tField('dinamica_comment', 'integer', length=2048),\n\t\tField('avaliacao_grade', 'integer', length=1,\n\t\t\trequires = IS_INT_IN_RANGE(1,5)),\n\t\tField('avaliacao_comment', 'string', length=2048),\n\t\tField('disponibilidade_grade', 'integer', length=1,\n\t\t\trequires = IS_INT_IN_RANGE(1,5)),\n\t\tField('disponibilidade_comment', 'string', length=2048))\n\n"
p6
sS'snapshot'
p7
(dp8
S'exception'
p9
(dp10
S'__hash__'
p11
S"<method-wrapper '__hash__' of exceptions.NameError object at 0x383b710>"
p12
sS'__setattr__'
p13
S"<method-wrapper '__setattr__' of exceptions.NameError object at 0x383b710>"
p14
sS'__reduce_ex__'
p15
S'<built-in method __reduce_ex__ of exceptions.NameError object at 0x383b710>'
p16
sS'__getslice__'
p17
S"<method-wrapper '__getslice__' of exceptions.NameError object at 0x383b710>"
p18
sS'__getitem__'
p19
S"<method-wrapper '__getitem__' of exceptions.NameError object at 0x383b710>"
p20
sS'__setstate__'
p21
S'<built-in method __setstate__ of exceptions.NameError object at 0x383b710>'
p22
sS'args'
p23
S'("name \'false\' is not defined",)'
p24
sS'__reduce__'
p25
S'<built-in method __reduce__ of exceptions.NameError object at 0x383b710>'
p26
sS'__str__'
p27
S"<method-wrapper '__str__' of exceptions.NameError object at 0x383b710>"
p28
sS'__format__'
p29
S'<built-in method __format__ of exceptions.NameError object at 0x383b710>'
p30
sS'__getattribute__'
p31
S"<method-wrapper '__getattribute__' of exceptions.NameError object at 0x383b710>"
p32
sS'__class__'
p33
S"<type 'exceptions.NameError'>"
p34
sS'__unicode__'
p35
S'<built-in method __unicode__ of exceptions.NameError object at 0x383b710>'
p36
sS'__delattr__'
p37
S"<method-wrapper '__delattr__' of exceptions.NameError object at 0x383b710>"
p38
sS'__subclasshook__'
p39
S'<built-in method __subclasshook__ of type object at 0x811f80>'
p40
sS'__repr__'
p41
S"<method-wrapper '__repr__' of exceptions.NameError object at 0x383b710>"
p42
sS'__dict__'
p43
S'{}'
p44
sS'__sizeof__'
p45
S'<built-in method __sizeof__ of exceptions.NameError object at 0x383b710>'
p46
sS'__doc__'
p47
S"'Name not found globally.'"
p48
sS'__init__'
p49
S"<method-wrapper '__init__' of exceptions.NameError object at 0x383b710>"
p50
sS'__new__'
p51
S'<built-in method __new__ of type object at 0x811f80>'
p52
ssS'evalue'
p53
S"name 'false' is not defined"
p54
sS'request'
p55
(dp56
S'function'
p57
S"'index'"
p58
sS'body'
p59
S'<cStringIO.StringO object at 0x39a0ed8>'
p60
sS'wsgi'
p61
S"<Storage {'start_response': <function <lambda> a...ING': 'gzip,deflate', 'HTTP_KEEP_ALIVE': '115'}}>"
p62
sS'extension'
p63
S"'html'"
p64
sS'vars'
p65
S'<Storage {}>'
p66
sS'cid'
p67
S'None'
p68
sS'url'
p69
S"'/forca/default/index'"
p70
sg23
S'[]'
p71
sS'controller'
p72
S"'default'"
p73
sS'cookies'
p74
S"<SimpleCookie: session_id_admin='127-0-0-1-dfed7...'127-0-0-1-f4e943e8-6071-4511-a68e-3738716bdadb'>"
p75
sS'application'
p76
S"'forca'"
p77
sS'ajax'
p78
S'False'
p79
sS'client'
p80
S"'127.0.0.1'"
p81
sS'env'
p82
S"<Storage {'http_user_agent': 'Mozilla/5.0 (X11; ...ce': False, 'path_info': '/forca/default/index'}>"
p83
sS'raw_args'
p84
S'None'
p85
sS'get_vars'
p86
S'<Storage {}>'
p87
sS'folder'
p88
S"'/home/tiago/Desktop/web2py/web2py/applications/forca/'"
p89
sS'now'
p90
S'datetime.datetime(2010, 8, 25, 18, 26, 4, 175434)'
p91
sS'post_vars'
p92
S'<Storage {}>'
p93
ssS'frames'
p94
(lp95
(dp96
S'file'
p97
S'/home/tiago/Desktop/web2py/web2py/gluon/restricted.py'
p98
sS'dump'
p99
(dp100
S'environment'
p101
S"{'A': <class 'gluon.html.A'>, 'Auth': <class 'gluon.tools.Auth'>, 'B': <class 'gluon.html.B'>, 'BEAUTIFY': <class 'gluon.html.BEAUTIFY'>, 'BODY': <class 'gluon.html.BODY'>, 'BR': <class 'gluon.html.BR'>, 'CENTER': <class 'gluon.html.CENTER'>, 'CLEANUP': <class 'gluon.validators.CLEANUP'>, 'CODE': <class 'gluon.html.CODE'>, 'CRYPT': <class 'gluon.validators.CRYPT'>, ...}"
p102
sS'ccode'
p103
S'<code object <module> at 0x39ea300, file "/home/...2py/applications/forca/models/models.py", line 1>'
p104
ssS'lnum'
p105
I186
sS'lines'
p106
(dp107
I181
S'        if type(code) == types.CodeType:'
p108
sI182
S'            ccode = code'
p109
sI183
S'        else:'
p110
sI184
S'            ccode = compile2(code,layer)'
p111
sI185
S''
sI186
S'        exec ccode in environment'
p112
sI187
S'    except HTTP:'
p113
sI188
S'        raise'
p114
sI189
S'    except Exception:'
p115
sI190
S'        # XXX Show exception in Wing IDE if running in debugger'
p116
ssS'call'
p117
S'(code="db = DAL(\'postgres://web2py:xx@localhost/web2py\'...sponibilidade_comment\', \'string\', length=2048))\\n\\n", environment={\'A\': <class \'gluon.html.A\'>, \'Auth\': <class \'gluon.tools.Auth\'>, \'B\': <class \'gluon.html.B\'>, \'BEAUTIFY\': <class \'gluon.html.BEAUTIFY\'>, \'BODY\': <class \'gluon.html.BODY\'>, \'BR\': <class \'gluon.html.BR\'>, \'CENTER\': <class \'gluon.html.CENTER\'>, \'CLEANUP\': <class \'gluon.validators.CLEANUP\'>, \'CODE\': <class \'gluon.html.CODE\'>, \'CRYPT\': <class \'gluon.validators.CRYPT\'>, ...}, layer=\'/home/tiago/Desktop/web2py/web2py/applications/forca/models/models.py\')'
p118
sS'func'
p119
S'restricted'
p120
sa(dp121
g97
S'/home/tiago/Desktop/web2py/web2py/applications/forca/models/models.py'
p122
sg99
(dp123
S'writable'
p124
S'undefined'
p125
sS'false'
p126
g125
sS'readable'
p127
g125
sS'builtinFalse'
p128
g79
ssg105
I37
sg106
(dp129
I32
S"\t\tField('disciplina_id', db.disciplinas.id, required=True, notnull=True,"
p130
sI33
S"\t\t\trequires = IS_IN_DB(db, db.disciplinas.id, ''),"
p131
sI34
S'\t\t\twritable = False, readable = False),'
p132
sI35
S"\t\tField('professor_id', db.professores.id, required=True, notnull=True,"
p133
sI36
S"\t\t\trequires = IS_IN_DB(db, db.professores.id, ''),"
p134
sI37
S'\t\t\twritable = False, readable = false),'
p135
sI38
S"\t\tField('year', 'integer', length=4,"
p136
sI39
S'\t\t\trequires = IS_INT_IN_RANGE(1970,9999)),'
p137
sI40
S"\t\tField('semester', 'integer', length=1,"
p138
sI41
S'\t\t\trequires = IS_INT_IN_RANGE(1,2)),'
p139
ssg117
S'()'
p140
sg119
S'<module>'
p141
sasS'pyver'
p142
S'Python 2.6.4: /usr/bin/python'
p143
sS'session'
p144
(dp145
S'auth'
p146
S'None'
p147
ssS'etype'
p148
S"<type 'exceptions.NameError'>"
p149
sS'date'
p150
S'Wed Aug 25 18:26:04 2010'
p151
sS'response'
p152
(dp153
S'status'
p154
S'200'
p155
sg59
S'<cStringIO.StringO object at 0x3a177d8>'
p156
sg74
S"<SimpleCookie: session_id_forca='127-0-0-1-b9768198-37ac-4906-af35-3d790b1f621a'>"
p157
sS'_vars'
p158
S'None'
p159
sS'title'
p160
S"'forca'"
p161
sS'session_file'
p162
S"<open file '/home/tiago/Desktop/web2py/web2py/ap...4906-af35-3d790b1f621a', mode 'rb+' at 0x3757140>"
p163
sS'flash'
p164
S"''"
p165
sS'_custom_rollback'
p166
S'None'
p167
sS'session_id'
p168
S"'127-0-0-1-b9768198-37ac-4906-af35-3d790b1f621a'"
p169
sS'headers'
p170
S"<Storage {'Expires': 'Wed, 25 Aug 2010 21:26:04 ...he, must-revalidate, post-check=0, pre-check=0'}>"
p171
sS'meta'
p172
S"<Storage {'keywords': 'bla bla bla', 'description': 'describe your app', 'author': 'you'}>"
p173
sS'session_filename'
p174
S"'/home/tiago/Desktop/web2py/web2py/applications/f...ns/127-0-0-1-b9768198-37ac-4906-af35-3d790b1f621a'"
p175
sS'postprocessing'
p176
S'[]'
p177
sS'menu'
p178
S"[(<lazyT 'Index'>, False, '/forca/default/index', []), (<lazyT 'Edit'>, False, '/admin/default/design/forca', [(<lazyT 'Controller'>, False, '/admin/default/edit/forca/controllers/default.py'), (<lazyT 'View'>, False, '/admin/default/edit/forca/views/default/index.html'), (<lazyT 'Layout'>, False, '/admin/default/edit/forca/views/layout.html'), (<lazyT 'Stylesheet'>, False, '/admin/default/edit/forca/static/base.css'), (<lazyT 'DB Model'>, False, '/admin/default/edit/forca/models/db.py'), (<lazyT 'Menu Model'>, False, '/admin/default/edit/forca/models/menu.py'), (<lazyT 'Database'>, False, '/forca/appadmin/index')])]"
p179
sS'_view_environment'
p180
S"{'A': <class 'gluon.html.A'>, 'B': <class 'gluon.html.B'>, 'BEAUTIFY': <class 'gluon.html.BEAUTIFY'>, 'BODY': <class 'gluon.html.BODY'>, 'BR': <class 'gluon.html.BR'>, 'CENTER': <class 'gluon.html.CENTER'>, 'CLEANUP': <class 'gluon.validators.CLEANUP'>, 'CODE': <class 'gluon.html.CODE'>, 'CRYPT': <class 'gluon.validators.CRYPT'>, 'DAL': <function DAL at 0x22df1b8>, ...}"
p181
sS'subtitle'
p182
S"<lazyT 'customize me!'>"
p183
sS'session_id_name'
p184
S"'session_id_forca'"
p185
sS'_custom_commit'
p186
S'None'
p187
sS'_caller'
p188
S'<function <lambda> at 0x39eaed8>'
p189
sS'files'
p190
S'[]'
p191
sS'view'
p192
S"'default/index.html'"
p193
ssS'locals'
p194
(dp195
S'Service'
p196
S'<class gluon.tools.Service at 0x248d8f0>'
p197
sS'OBJECT'
p198
S"<class 'gluon.html.OBJECT'>"
p199
sS'SQLDB'
p200
S"<class 'gluon.sql.SQLDB'>"
p201
sg144
S"<Storage {'auth': None}>"
p202
sS'LINK'
p203
S"<class 'gluon.html.LINK'>"
p204
sS'BR'
p205
S"<class 'gluon.html.BR'>"
p206
sS'local_import'
p207
S'<function <lambda> at 0x39ea848>'
p208
sS'OPTGROUP'
p209
S"<class 'gluon.html.OPTGROUP'>"
p210
sS'PRE'
p211
S"<class 'gluon.html.PRE'>"
p212
sS'IS_INT_IN_RANGE'
p213
S"<class 'gluon.validators.IS_INT_IN_RANGE'>"
p214
sS'IS_LOWER'
p215
S"<class 'gluon.validators.IS_LOWER'>"
p216
sS'IS_STRONG'
p217
S"<class 'gluon.validators.IS_STRONG'>"
p218
sS'Recaptcha'
p219
S"<class 'gluon.tools.Recaptcha'>"
p220
sS'cache'
p221
S'<gluon.cache.Cache object at 0x36d1790>'
p222
sS'IS_IN_DB'
p223
S"<class 'gluon.validators.IS_IN_DB'>"
p224
sS'TAG'
p225
S'<gluon.html.__TAG__ object at 0x22491d0>'
p226
sS'SQLField'
p227
S"<class 'gluon.sql.Field'>"
p228
sS'mail'
p229
S'<gluon.tools.Mail object at 0x3841590>'
p230
sS'BODY'
p231
S"<class 'gluon.html.BODY'>"
p232
sS'IS_DATE_IN_RANGE'
p233
S"<class 'gluon.validators.IS_DATE_IN_RANGE'>"
p234
sS'IFRAME'
p235
S"<class 'gluon.html.IFRAME'>"
p236
sS'URL'
p237
S'<function _URL at 0x39ea7d0>'
p238
sS'db'
p239
S"<SQLDB {'_connection': <connection object at 0x3...l.Field object at 0x3a23d10>}>, '_pool_size': 0}>"
p240
sS'auth'
p241
S'<gluon.tools.Auth object at 0x38414d0>'
p242
sS'P'
S"<class 'gluon.html.P'>"
p243
sS'TFOOT'
p244
S"<class 'gluon.html.TFOOT'>"
p245
sS'XHTML'
p246
S"<class 'gluon.html.XHTML'>"
p247
sS'ON'
p248
S'True'
p249
sS'OL'
p250
S"<class 'gluon.html.OL'>"
p251
sS'TEXTAREA'
p252
S"<class 'gluon.html.TEXTAREA'>"
p253
sS'MENU'
p254
S"<class 'gluon.html.MENU'>"
p255
sS'EM'
p256
S"<class 'gluon.html.EM'>"
p257
sS'CODE'
p258
S"<class 'gluon.html.CODE'>"
p259
sS'HTTP'
p260
S"<class 'gluon.http.HTTP'>"
p261
sS'HR'
p262
S"<class 'gluon.html.HR'>"
p263
sS'IS_DATETIME'
p264
S"<class 'gluon.validators.IS_DATETIME'>"
p265
sS'STYLE'
p266
S"<class 'gluon.html.STYLE'>"
p267
sS'LABEL'
p268
S"<class 'gluon.html.LABEL'>"
p269
sS'CLEANUP'
p270
S"<class 'gluon.validators.CLEANUP'>"
p271
sS'plugins'
p272
S'<gluon.tools.PluginManager object at 0x395f1d0>'
p273
sS'SELECT'
p274
S"<class 'gluon.html.SELECT'>"
p275
sS'CENTER'
p276
S"<class 'gluon.html.CENTER'>"
p277
sS'prettydate'
p278
S'<function prettydate at 0x24de398>'
p279
sS'Crud'
p280
S"<class 'gluon.tools.Crud'>"
p281
sS'Auth'
p282
S"<class 'gluon.tools.Auth'>"
p283
sS'__builtins__'
p284
S"{'ArithmeticError': <type 'exceptions.ArithmeticError'>, 'AssertionError': <type 'exceptions.AssertionError'>, 'AttributeError': <type 'exceptions.AttributeError'>, 'BaseException': <type 'exceptions.BaseException'>, 'BufferError': <type 'exceptions.BufferError'>, 'BytesWarning': <type 'exceptions.BytesWarning'>, 'DeprecationWarning': <type 'exceptions.DeprecationWarning'>, 'EOFError': <type 'exceptions.EOFError'>, 'Ellipsis': Ellipsis, 'EnvironmentError': <type 'exceptions.EnvironmentError'>, ...}"
p285
sS'IS_LIST_OF'
p286
S"<class 'gluon.validators.IS_LIST_OF'>"
p287
sS'SQLFORM'
p288
S"<class 'gluon.sqlhtml.SQLFORM'>"
p289
sS'LOAD'
p290
S'<gluon.compileapp.LoadFactory instance at 0x3a16440>'
p291
sS'redirect'
p292
S'<function redirect at 0x21295f0>'
p293
sS'FIELDSET'
p294
S"<class 'gluon.html.FIELDSET'>"
p295
sS'IS_EQUAL_TO'
p296
S"<class 'gluon.validators.IS_EQUAL_TO'>"
p297
sS'embed64'
p298
S'<function embed64 at 0x21fd848>'
p299
sS'INPUT'
p300
S"<class 'gluon.html.INPUT'>"
p301
sS'EMBED'
p302
S"<class 'gluon.html.EMBED'>"
p303
sS'FORM'
p304
S"<class 'gluon.html.FORM'>"
p305
sS'H2'
p306
S"<class 'gluon.html.H2'>"
p307
sS'H3'
p308
S"<class 'gluon.html.H3'>"
p309
sS'H1'
p310
S"<class 'gluon.html.H1'>"
p311
sS'H6'
p312
S"<class 'gluon.html.H6'>"
p313
sS'H4'
p314
S"<class 'gluon.html.H4'>"
p315
sS'H5'
p316
S"<class 'gluon.html.H5'>"
p317
sS'UL'
p318
S"<class 'gluon.html.UL'>"
p319
sS'IS_UPPER'
p320
S"<class 'gluon.validators.IS_UPPER'>"
p321
sS'xmlescape'
p322
S'<function xmlescape at 0x21f47d0>'
p323
sS'IS_TIME'
p324
S"<class 'gluon.validators.IS_TIME'>"
p325
sS'OPTION'
p326
S"<class 'gluon.html.OPTION'>"
p327
sS'TITLE'
p328
S"<class 'gluon.html.TITLE'>"
p329
sS'CRYPT'
p330
S"<class 'gluon.validators.CRYPT'>"
p331
sS'IS_EMPTY_OR'
p332
S"<class 'gluon.validators.IS_EMPTY_OR'>"
p333
sS'MARKMIN'
p334
S"<class 'gluon.html.MARKMIN'>"
p335
sS'service'
p336
S'<gluon.tools.Service instance at 0x383bdd0>'
p337
sS'SCRIPT'
p338
S"<class 'gluon.html.SCRIPT'>"
p339
sS'geocode'
p340
S'<function geocode at 0x24db6e0>'
p341
sS'TABLE'
p342
S"<class 'gluon.html.TABLE'>"
p343
sS'IS_IPV4'
p344
S"<class 'gluon.validators.IS_IPV4'>"
p345
sS'IS_LENGTH'
p346
S"<class 'gluon.validators.IS_LENGTH'>"
p347
sS'XML'
p348
S"<class 'gluon.html.XML'>"
p349
sS'B'
S"<class 'gluon.html.B'>"
p350
sS'IMG'
p351
S"<class 'gluon.html.IMG'>"
p352
sS'SQLTABLE'
p353
S"<class 'gluon.sqlhtml.SQLTABLE'>"
p354
sS'IS_MATCH'
p355
S"<class 'gluon.validators.IS_MATCH'>"
p356
sS'IS_ALPHANUMERIC'
p357
S"<class 'gluon.validators.IS_ALPHANUMERIC'>"
p358
sS'SPAN'
p359
S"<class 'gluon.html.SPAN'>"
p360
sS'IS_SLUG'
p361
S"<class 'gluon.validators.IS_SLUG'>"
p362
sS'META'
p363
S"<class 'gluon.html.META'>"
p364
sS'fetch'
p365
S'<function fetch at 0x24d6758>'
p366
sS'IS_DATE'
p367
S"<class 'gluon.validators.IS_DATE'>"
p368
sS'IS_EMAIL'
p369
S"<class 'gluon.validators.IS_EMAIL'>"
p370
sS'IS_NOT_EMPTY'
p371
S"<class 'gluon.validators.IS_NOT_EMPTY'>"
p372
sS'IS_FLOAT_IN_RANGE'
p373
S"<class 'gluon.validators.IS_FLOAT_IN_RANGE'>"
p374
sS'BEAUTIFY'
p375
S"<class 'gluon.html.BEAUTIFY'>"
p376
sS'TBODY'
p377
S"<class 'gluon.html.TBODY'>"
p378
sS'Field'
p379
S"<class 'gluon.sql.Field'>"
p380
sS'Mail'
p381
S"<class 'gluon.tools.Mail'>"
p382
sS'DIV'
p383
S"<class 'gluon.html.DIV'>"
p384
sS'LEGEND'
p385
S"<class 'gluon.html.LEGEND'>"
p386
sS'DAL'
p387
S'<function DAL at 0x22df1b8>'
p388
sS'TT'
p389
S"<class 'gluon.html.TT'>"
p390
sS'TR'
p391
S"<class 'gluon.html.TR'>"
p392
sS'LI'
p393
S"<class 'gluon.html.LI'>"
p394
sS'TH'
p395
S"<class 'gluon.html.TH'>"
p396
sS'TD'
p397
S"<class 'gluon.html.TD'>"
p398
sS'PluginManager'
p399
S"<class 'gluon.tools.PluginManager'>"
p400
sS'IS_URL'
p401
S"<class 'gluon.validators.IS_URL'>"
p402
sS'A'
S"<class 'gluon.html.A'>"
p403
sS'HEAD'
p404
S"<class 'gluon.html.HEAD'>"
p405
sS'IS_DATETIME_IN_RANGE'
p406
S"<class 'gluon.validators.IS_DATETIME_IN_RANGE'>"
p407
sS'HTML'
p408
S"<class 'gluon.html.HTML'>"
p409
sS'IS_IMAGE'
p410
S"<class 'gluon.validators.IS_IMAGE'>"
p411
sS'I'
S"<class 'gluon.html.I'>"
p412
sS'crud'
p413
S'<gluon.tools.Crud object at 0x3590b10>'
p414
sS'IS_NOT_IN_DB'
p415
S"<class 'gluon.validators.IS_NOT_IN_DB'>"
p416
sg152
S"<Storage {'status': 200, 'body': <cStringIO.Stri...ex.html', 'files': [], '_custom_rollback': None}>"
p417
sS'THEAD'
p418
S"<class 'gluon.html.THEAD'>"
p419
sS'IS_NULL_OR'
p420
S"<class 'gluon.validators.IS_EMPTY_OR'>"
p421
sg55
S"<Storage {'function': 'index', 'body': <cStringI..., 18, 26, 4, 175434), 'post_vars': <Storage {}>}>"
p422
sS'IS_EXPR'
p423
S"<class 'gluon.validators.IS_EXPR'>"
p424
sS'IS_IN_SET'
p425
S"<class 'gluon.validators.IS_IN_SET'>"
p426
sS'IS_UPLOAD_FILENAME'
p427
S"<class 'gluon.validators.IS_UPLOAD_FILENAME'>"
p428
sS'IS_DECIMAL_IN_RANGE'
p429
S"<class 'gluon.validators.IS_DECIMAL_IN_RANGE'>"
p430
sS'T'
S'<gluon.languages.translator object at 0x36d1a90>'
p431
sssS'traceback'
p432
S'Traceback (most recent call last):\n  File "/home/tiago/Desktop/web2py/web2py/gluon/restricted.py", line 186, in restricted\n    exec ccode in environment\n  File "/home/tiago/Desktop/web2py/web2py/applications/forca/models/models.py", line 37, in <module>\n    writable = False, readable = false),\nNameError: name \'false\' is not defined\n'
p433
s.