(dp1
S'output'
p2
S''
sS'layer'
p3
S'/home/tiago/ForCA/applications/ForCA/views/profs/list.html'
p4
sS'code'
p5
S'response.write(\'<html>\\n\\t<head>\\n\\t\\t<title>ForCA - Lista de professores</title>\\n\\t</head>\\n\\t<body>\\n\\t\\t<table>\\n\\t\\t\\t<tr>\\n\\t\\t\\t\\t<th>Foto</th>\\n\\t\\t\\t\\t<th>Nome</th>\\n\\t\\t\\t\\t<th>Rating</th>\\n\\t\\t\\t</tr>\\n\\t\\t\\t\', escape=False)\nfor prof in profs:\n    response.write(\'\\n\\t\\t\\t<tr>\\n\\t\\t\\t\\t<td><img width="50px" src="\', escape=False)\n    response.write(URL(\'download\', args=prof.picture))\n    response.write(\'"></td>\\n\\t\\t\\t\\t<td>\', escape=False)\n    response.write(prof.long_name)\n    response.write(\'</td>\\n\\t\\t\\t\\t<td>\', escape=False)\n    response.write(prof.grade or \'-\')\n    response.write(\'</td>\\n\\t\\t\\t</tr>\\n\\t\\t\\t\', escape=False)\n    pass\nresponse.write(\'\\n\\t\\t</table>\\n\\t</body>\\n</html>\\n\\n\', escape=False)'
p6
sS'snapshot'
p7
(dp8
S'exception'
p9
(dp10
S'__hash__'
p11
S"<method-wrapper '__hash__' of exceptions.KeyError object>"
p12
sS'__setattr__'
p13
S"<method-wrapper '__setattr__' of exceptions.KeyError object>"
p14
sS'__reduce_ex__'
p15
S'<built-in method __reduce_ex__ of exceptions.KeyError object>'
p16
sS'__getslice__'
p17
S"<method-wrapper '__getslice__' of exceptions.KeyError object>"
p18
sS'__getitem__'
p19
S"<method-wrapper '__getitem__' of exceptions.KeyError object>"
p20
sS'__setstate__'
p21
S'<built-in method __setstate__ of exceptions.KeyError object>'
p22
sS'__reduce__'
p23
S'<built-in method __reduce__ of exceptions.KeyError object>'
p24
sS'__str__'
p25
S"<method-wrapper '__str__' of exceptions.KeyError object>"
p26
sS'__format__'
p27
S'<built-in method __format__ of exceptions.KeyError object>'
p28
sS'__getattribute__'
p29
S"<method-wrapper '__getattribute__' of exceptions.KeyError object>"
p30
sS'__class__'
p31
S"<type 'exceptions.KeyError'>"
p32
sS'__unicode__'
p33
S'<built-in method __unicode__ of exceptions.KeyError object>'
p34
sS'__delattr__'
p35
S"<method-wrapper '__delattr__' of exceptions.KeyError object>"
p36
sS'__subclasshook__'
p37
S'<built-in method __subclasshook__ of type object>'
p38
sS'__repr__'
p39
S"<method-wrapper '__repr__' of exceptions.KeyError object>"
p40
sS'args'
p41
S"('grade',)"
p42
sS'__dict__'
p43
S'{}'
p44
sS'__sizeof__'
p45
S'<built-in method __sizeof__ of exceptions.KeyError object>'
p46
sS'__doc__'
p47
S"'Mapping key not found.'"
p48
sS'__init__'
p49
S"<method-wrapper '__init__' of exceptions.KeyError object>"
p50
sS'__new__'
p51
S'<built-in method __new__ of type object>'
p52
ssS'evalue'
p53
S"'grade'"
p54
sS'request'
p55
(dp56
S'function'
p57
S"'list'"
p58
sS'body'
p59
S'<cStringIO.StringO object>'
p60
sS'wsgi'
p61
S"<Storage {'start_response': <function <lambda> a...ING': 'gzip,deflate', 'HTTP_KEEP_ALIVE': '115'}}>"
p62
sS'extension'
p63
S"'html'"
p64
sS'vars'
p65
S'<Storage {}>'
p66
sS'cid'
p67
S'None'
p68
sS'url'
p69
S"'/ForCA/profs/list'"
p70
sg41
S'[]'
p71
sS'controller'
p72
S"'profs'"
p73
sS'cookies'
p74
S"<SimpleCookie: session_id_ForCA='127-0-0-1-4be4d...'127-0-0-1-27aed1a3-935d-4059-9eef-fa8b22024cd8'>"
p75
sS'application'
p76
S"'ForCA'"
p77
sS'ajax'
p78
S'False'
p79
sS'client'
p80
S"'127.0.0.1'"
p81
sS'env'
p82
S"<Storage {'http_user_agent': 'Mozilla/5.0 (X11; ...te', 'query_string': '', 'wsgi_run_once': False}>"
p83
sS'raw_args'
p84
S'None'
p85
sS'get_vars'
p86
S'<Storage {}>'
p87
sS'folder'
p88
S"'/home/tiago/ForCA/applications/ForCA/'"
p89
sS'now'
p90
S'datetime.datetime(2010, 8, 26, 21, 48, 24, 212712)'
p91
sS'post_vars'
p92
S'<Storage {}>'
p93
ssS'frames'
p94
(lp95
(dp96
S'file'
p97
S'/home/tiago/ForCA/gluon/restricted.py'
p98
sS'dump'
p99
(dp100
S'environment'
p101
S"{'A': <class 'gluon.html.A'>, 'Auth': <class 'gluon.tools.Auth'>, 'B': <class 'gluon.html.B'>, 'BEAUTIFY': <class 'gluon.html.BEAUTIFY'>, 'BODY': <class 'gluon.html.BODY'>, 'BR': <class 'gluon.html.BR'>, 'CENTER': <class 'gluon.html.CENTER'>, 'CLEANUP': <class 'gluon.validators.CLEANUP'>, 'CODE': <class 'gluon.html.CODE'>, 'CRYPT': <class 'gluon.validators.CRYPT'>, ...}"
p102
sS'ccode'
p103
S'<code object <module> at 0xb0682bf0, file "/home...pplications/ForCA/views/profs/list.html", line 1>'
p104
ssS'lnum'
p105
I186
sS'lines'
p106
(dp107
I181
S'        if type(code) == types.CodeType:'
p108
sI182
S'            ccode = code'
p109
sI183
S'        else:'
p110
sI184
S'            ccode = compile2(code,layer)'
p111
sI185
S''
sI186
S'        exec ccode in environment'
p112
sI187
S'    except HTTP:'
p113
sI188
S'        raise'
p114
sI189
S'    except Exception:'
p115
sI190
S'        # XXX Show exception in Wing IDE if running in debugger'
p116
ssS'call'
p117
S'(code=r"response.write(\'<html>\\n\\t<head>\\n\\t\\t<title>For...t</table>\\n\\t</body>\\n</html>\\n\\n\', escape=False)", environment={\'A\': <class \'gluon.html.A\'>, \'Auth\': <class \'gluon.tools.Auth\'>, \'B\': <class \'gluon.html.B\'>, \'BEAUTIFY\': <class \'gluon.html.BEAUTIFY\'>, \'BODY\': <class \'gluon.html.BODY\'>, \'BR\': <class \'gluon.html.BR\'>, \'CENTER\': <class \'gluon.html.CENTER\'>, \'CLEANUP\': <class \'gluon.validators.CLEANUP\'>, \'CODE\': <class \'gluon.html.CODE\'>, \'CRYPT\': <class \'gluon.validators.CRYPT\'>, ...}, layer=\'/home/tiago/ForCA/applications/ForCA/views/profs/list.html\')'
p118
sS'func'
p119
S'restricted'
p120
sa(dp121
g97
S'/home/tiago/ForCA/applications/ForCA/views/profs/list.html'
p122
sg99
(dp123
S'Foto'
p124
S'undefined'
p125
sS'th'
p126
g125
ssg105
I8
sg106
(dp127
I1
S"response.write('<html>\\n\\t<head>\\n\\t\\t<title>ForCA - Lista de professores</title>\\n\\t</head>\\n\\t<body>\\n\\t\\t<table>\\n\\t\\t\\t<tr>\\n\\t\\t\\t\\t<th>Foto</th>\\n\\t\\t\\t\\t<th>Nome</th>\\n\\t\\t\\t\\t<th>Rating</th>\\n\\t\\t\\t</tr>\\n\\t\\t\\t', escape=False)"
p128
sI2
S'for prof in profs:'
p129
sI3
S'    response.write(\'\\n\\t\\t\\t<tr>\\n\\t\\t\\t\\t<td><img width="50px" src="\', escape=False)'
p130
sI4
S"    response.write(URL('download', args=prof.picture))"
p131
sI5
S'    response.write(\'"></td>\\n\\t\\t\\t\\t<td>\', escape=False)'
p132
sI6
S'    response.write(prof.long_name)'
p133
sI7
S"    response.write('</td>\\n\\t\\t\\t\\t<td>', escape=False)"
p134
sI8
S"    response.write(prof.grade or '-')"
p135
sI9
S"    response.write('</td>\\n\\t\\t\\t</tr>\\n\\t\\t\\t', escape=False)"
p136
sI10
S'    pass'
p137
sI11
S"response.write('\\n\\t\\t</table>\\n\\t</body>\\n</html>\\n\\n', escape=False)"
p138
ssg117
S'()'
p139
sg119
S'<module>'
p140
sa(dp141
g97
S'/home/tiago/ForCA/gluon/sql.py'
p142
sg99
(dp143
S'self'
p144
S"<Row {'rating': None, 'short_name': 'Carissimi',...lete_record': <function <lambda> at 0xb069f0d4>}>"
p145
sS'dict.__getitem__'
p146
S"<method '__getitem__' of 'dict' objects>"
p147
sS'key'
p148
S"'grade'"
p149
sS'builtindict'
p150
S"<type 'dict'>"
p151
ssg105
I717
sg106
(dp152
I712
S''
sI713
S'    def __setitem__(self, key, value):'
p153
sI714
S'        dict.__setitem__(self, str(key), value)'
p154
sI715
S''
sI716
S'    def __getattr__(self, key):'
p155
sI717
S'        return dict.__getitem__(self,key)'
p156
sI718
S''
sI719
S'    def __setattr__(self, key, value):'
p157
sI720
S'        dict.__setitem__(self,key,value)'
p158
sI721
S''
ssg117
S"(self=<Row {'rating': None, 'short_name': 'Carissimi',...lete_record': <function <lambda> at 0xb069f0d4>}>, key='grade')"
p159
sg119
S'__getattr__'
p160
sasS'pyver'
p161
S'Python 2.6.5: /usr/bin/python'
p162
sS'session'
p163
(dp164
S'_formkey[login]'
p165
S"'c37e1159-ee83-48f0-9161-329dd06ebb70'"
p166
sS'auth'
p167
S'None'
p168
ssS'etype'
p169
S"<type 'exceptions.KeyError'>"
p170
sS'date'
p171
S'Thu Aug 26 21:48:24 2010'
p172
sS'response'
p173
(dp174
S'status'
p175
S'200'
p176
sg59
S'<cStringIO.StringO object>'
p177
sg74
S"<SimpleCookie: session_id_ForCA='127-0-0-1-4be4d4c9-7fb7-40f6-b2c5-ca52a8130cae'>"
p178
sS'_vars'
p179
S"{'profs': <gluon.sql.Rows object>}"
p180
sS'title'
p181
S"'ForCA'"
p182
sS'session_file'
p183
S"<open file '/home/tiago/ForCA/applications/ForCA...be4d4c9-7fb7-40f6-b2c5-ca52a8130cae', mode 'rb+'>"
p184
sS'flash'
p185
S"''"
p186
sS'_custom_rollback'
p187
S'None'
p188
sS'session_id'
p189
S"'127-0-0-1-4be4d4c9-7fb7-40f6-b2c5-ca52a8130cae'"
p190
sS'headers'
p191
S"<Storage {'Expires': 'Fri, 27 Aug 2010 00:48:24 ...he, must-revalidate, post-check=0, pre-check=0'}>"
p192
sS'meta'
p193
S"<Storage {'keywords': 'bla bla bla', 'description': 'describe your app', 'author': 'you'}>"
p194
sS'session_filename'
p195
S"'/home/tiago/ForCA/applications/ForCA/sessions/127-0-0-1-4be4d4c9-7fb7-40f6-b2c5-ca52a8130cae'"
p196
sS'postprocessing'
p197
S'[]'
p198
sS'menu'
p199
S"[(<lazyT 'Index'>, False, '/ForCA/default/index', []), (<lazyT 'Edit'>, False, '/admin/default/design/ForCA', [(<lazyT 'Controller'>, False, '/admin/default/edit/ForCA/controllers/profs.py'), (<lazyT 'View'>, False, '/admin/default/edit/ForCA/views/profs/list.html'), (<lazyT 'Layout'>, False, '/admin/default/edit/ForCA/views/layout.html'), (<lazyT 'Stylesheet'>, False, '/admin/default/edit/ForCA/static/base.css'), (<lazyT 'DB Model'>, False, '/admin/default/edit/ForCA/models/db.py'), (<lazyT 'Menu Model'>, False, '/admin/default/edit/ForCA/models/menu.py'), (<lazyT 'Database'>, False, '/ForCA/appadmin/index')])]"
p200
sS'_view_environment'
p201
S"{'A': <class 'gluon.html.A'>, 'Auth': <class 'gluon.tools.Auth'>, 'B': <class 'gluon.html.B'>, 'BEAUTIFY': <class 'gluon.html.BEAUTIFY'>, 'BODY': <class 'gluon.html.BODY'>, 'BR': <class 'gluon.html.BR'>, 'CENTER': <class 'gluon.html.CENTER'>, 'CLEANUP': <class 'gluon.validators.CLEANUP'>, 'CODE': <class 'gluon.html.CODE'>, 'CRYPT': <class 'gluon.validators.CRYPT'>, ...}"
p202
sS'subtitle'
p203
S"<lazyT 'customize me!'>"
p204
sS'session_id_name'
p205
S"'session_id_ForCA'"
p206
sS'_custom_commit'
p207
S'None'
p208
sS'_caller'
p209
S'<function <lambda>>'
p210
sS'files'
p211
S'[]'
p212
sS'view'
p213
S"'profs/list.html'"
p214
ssS'locals'
p215
(dp216
S'self'
p217
S"<Row {'rating': None, 'short_name': 'Carissimi',...lete_record': <function <lambda> at 0xb069f0d4>}>"
p218
sS'key'
p219
S"'grade'"
p220
sssS'traceback'
p221
S'Traceback (most recent call last):\n  File "/home/tiago/ForCA/gluon/restricted.py", line 186, in restricted\n    exec ccode in environment\n  File "/home/tiago/ForCA/applications/ForCA/views/profs/list.html", line 8, in <module>\n    <th>Foto</th>\n  File "/home/tiago/ForCA/gluon/sql.py", line 717, in __getattr__\n    return dict.__getitem__(self,key)\nKeyError: \'grade\'\n'
p222
s.