(dp1
S'output'
p2
S'missing "pass" in view'
p3
sS'layer'
p4
S'ParserContainer'
p5
sS'code'
p6
S"response.write('<html>\\n\\t<head>\\n\\t\\t<title>ForCA - Lista de professores</title>\\n\\t</head>\\n\\t<body>\\n\\t\\t<table>\\n\\t\\t\\t<tr>\\n\\t\\t\\t\\t<th>Nome</th>\\n\\t\\t\\t\\t<th>E-mail</th>\\n\\t\\t\\t</tr>\\n\\t\\t\\t', escape=False)\nfor prof in profs:\n    response.write('\\n\\t\\t\\t<tr>\\n\\t\\t\\t\\t<td>', escape=False)\n    prof.long_name\n    response.write('</td>\\n\\t\\t\\t\\t<td>', escape=False)\n    prof.email\n    response.write('</td>\\n\\t\\t\\t</tr>\\n\\t\\t</table>\\n\\t</body>\\n</html>\\n\\n', escape=False)"
p7
sS'snapshot'
p8
(dp9
S'exception'
p10
(dp11
S'__module__'
p12
S"'gluon.rocket'"
p13
sS'__getslice__'
p14
S"<method-wrapper '__getslice__' of SocketClosed object>"
p15
sS'__str__'
p16
S"<method-wrapper '__str__' of SocketClosed object>"
p17
sS'__reduce__'
p18
S'<built-in method __reduce__ of SocketClosed object>'
p19
sS'__dict__'
p20
S'{}'
p21
sS'__sizeof__'
p22
S'<built-in method __sizeof__ of SocketClosed object>'
p23
sS'__weakref__'
p24
S'None'
p25
sS'__init__'
p26
S"<method-wrapper '__init__' of SocketClosed object>"
p27
sS'__setattr__'
p28
S"<method-wrapper '__setattr__' of SocketClosed object>"
p29
sS'__reduce_ex__'
p30
S'<built-in method __reduce_ex__ of SocketClosed object>'
p31
sS'__new__'
p32
S'<built-in method __new__ of type object>'
p33
sS'__format__'
p34
S'<built-in method __format__ of SocketClosed object>'
p35
sS'__class__'
p36
S"<class 'gluon.rocket.SocketClosed'>"
p37
sS'__doc__'
p38
S"'Exception for when a socket is closed by the client.'"
p39
sS'__getitem__'
p40
S"<method-wrapper '__getitem__' of SocketClosed object>"
p41
sS'__setstate__'
p42
S'<built-in method __setstate__ of SocketClosed object>'
p43
sS'__getattribute__'
p44
S"<method-wrapper '__getattribute__' of SocketClosed object>"
p45
sS'args'
p46
S"('Client closed socket.',)"
p47
sS'__subclasshook__'
p48
S'<built-in method __subclasshook__ of type object>'
p49
sS'__unicode__'
p50
S'<built-in method __unicode__ of SocketClosed object>'
p51
sS'__delattr__'
p52
S"<method-wrapper '__delattr__' of SocketClosed object>"
p53
sS'__repr__'
p54
S"<method-wrapper '__repr__' of SocketClosed object>"
p55
sS'__hash__'
p56
S"<method-wrapper '__hash__' of SocketClosed object>"
p57
ssS'evalue'
p58
S'Client closed socket.'
p59
sS'frames'
p60
(lp61
(dp62
S'file'
p63
S'/home/tiago/ForCA/gluon/rocket.py'
p64
sS'dump'
p65
(dp66
S'self'
p67
S'<WSGIWorker(Thread-3, started daemon -1297101968)>'
p68
sS'conn'
p69
S'<socket._socketobject object>'
p70
sS'self.run_app'
p71
S'<bound method WSGIWorker.run_app of <WSGIWorker(Thread-3, started daemon -1297101968)>>'
p72
ssS'lnum'
p73
I871
sS'lines'
p74
(dp75
I866
S''
sI867
S'            # Enter connection serve loop'
p76
sI868
S'            while True:'
p77
sI869
S"                self.err_log.debug('Serving a request')"
p78
sI870
S'                try:'
p79
sI871
S'                    self.run_app(conn)'
p80
sI872
S'                    log_info = dict(client_ip = conn.client_addr,'
p81
sI873
S"                                    time = datetime.now().strftime('%c'),"
p82
sI874
S"                                    status = self.status.split(' ')[0],"
p83
sI875
S'                                    size = self.size,'
p84
ssS'call'
p85
S'(self=<WSGIWorker(Thread-3, started daemon -1297101968)>)'
p86
sS'func'
p87
S'run'
p88
sa(dp89
g63
S'/home/tiago/ForCA/gluon/rocket.py'
p90
sg65
(dp91
S'self'
p92
S'<WSGIWorker(Thread-3, started daemon -1297101968)>'
p93
sS'self.environ'
p94
S"{'HTTP_ACCEPT': 'text/html,application/xhtml+xml,application/xml;q=0.9,*/*;q=0.8', 'HTTP_ACCEPT_CHARSET': 'ISO-8859-1,utf-8;q=0.7,*;q=0.7', 'HTTP_ACCEPT_ENCODING': 'gzip,deflate', 'HTTP_ACCEPT_LANGUAGE': 'en-us,en;q=0.5', 'HTTP_CACHE_CONTROL': 'no-cache', 'HTTP_CONNECTION': 'keep-alive', 'HTTP_COOKIE': 'session_id_welcome=127-0-0-1-27aed1a3-935d-4059-...CA=127-0-0-1-4be4d4c9-7fb7-40f6-b2c5-ca52a8130cae', 'HTTP_HOST': 'localhost:8000', 'HTTP_KEEP_ALIVE': '115', 'HTTP_PRAGMA': 'no-cache', ...}"
p95
sS'sock_file'
p96
S'<socket._fileobject object>'
p97
sS'environ'
p98
S'undefined'
p99
sS'self.build_environ'
p100
S'<bound method WSGIWorker.build_environ of <WSGIWorker(Thread-3, started daemon -1297101968)>>'
p101
sS'conn'
p102
S'<socket._socketobject object>'
p103
ssg73
I1281
sg74
(dp104
I1280
S'            # Read the headers and build our WSGI environment'
p105
sI1281
S'            self.environ = environ = self.build_environ(sock_file, conn)'
p106
sI1282
S''
sI1283
S'            # Handle 100 Continue'
p107
sI1284
S"            if environ.get('HTTP_EXPECT', '').lower() == '100-continue':"
p108
sI1285
S"                res = environ['SERVER_PROTOCOL'] + ' 100 Continue\\r\\n\\r\\n'"
p109
sI1276
S'        # Build our file-like object'
p110
sI1277
S"        sock_file = conn.makefile('rb',BUF_SIZE)"
p111
sI1278
S''
sI1279
S'        try:'
p112
ssg85
S'(self=<WSGIWorker(Thread-3, started daemon -1297101968)>, conn=<socket._socketobject object>)'
p113
sg87
S'run_app'
p114
sa(dp115
g63
S'/home/tiago/ForCA/gluon/rocket.py'
p116
sg65
(dp117
S'sock_file'
p118
S'<socket._fileobject object>'
p119
sS'self.read_request_line'
p120
S'<bound method WSGIWorker.read_request_line of <WSGIWorker(Thread-3, started daemon -1297101968)>>'
p121
sS'self'
p122
S'<WSGIWorker(Thread-3, started daemon -1297101968)>'
p123
sS'request'
p124
g99
ssg73
I1114
sg74
(dp125
I1109
S'        Worker.__init__(self)'
p126
sI1110
S''
sI1111
S'    def build_environ(self, sock_file, conn):'
p127
sI1112
S'        """ Build the execution environment. """'
p128
sI1113
S'        # Grab the request line'
p129
sI1114
S'        request = self.read_request_line(sock_file)'
p130
sI1115
S''
sI1116
S'        # Grab the headers'
p131
sI1117
S"        self.headers = dict([(str('HTTP_'+k.upper()), v) for k, v in self.read_headers(sock_file).items()])"
p132
sI1118
S''
ssg85
S'(self=<WSGIWorker(Thread-3, started daemon -1297101968)>, sock_file=<socket._fileobject object>, conn=<socket._socketobject object>)'
p133
sg87
S'build_environ'
p134
sa(dp135
g63
S'/home/tiago/ForCA/gluon/rocket.py'
p136
sg65
(dp137
S'global SocketClosed'
p138
S"<class 'gluon.rocket.SocketClosed'>"
p139
ssg73
I942
sg74
(dp140
I937
S'        except socket.timeout:'
p141
sI938
S'            raise SocketTimeout("Socket timed out before request.")'
p142
sI939
S''
sI940
S"        if d.strip() == '':"
p143
sI941
S"            self.err_log.debug('Client did not send a recognizable request.')"
p144
sI942
S"            raise SocketClosed('Client closed socket.')"
p145
sI943
S''
sI944
S'        try:'
p146
sI945
S'            self.request_line = d.strip()'
p147
sI946
S"            method, uri, proto = self.request_line.split(' ')"
p148
ssg85
S'(self=<WSGIWorker(Thread-3, started daemon -1297101968)>, sock_file=<socket._fileobject object>)'
p149
sg87
S'read_request_line'
p150
sasS'pyver'
p151
S'Python 2.6.5: /usr/bin/python'
p152
sS'etype'
p153
S"<class 'gluon.rocket.SocketClosed'>"
p154
sS'date'
p155
S'Thu Aug 26 20:58:01 2010'
p156
sS'locals'
p157
(dp158
S'sock_file'
p159
S'<socket._fileobject object>'
p160
sS'self'
p161
S'<WSGIWorker(Thread-3, started daemon -1297101968)>'
p162
sS'd'
S"''"
p163
sssS'traceback'
p164
S'Traceback (most recent call last):\n  File "/home/tiago/ForCA/gluon/rocket.py", line 871, in run\n    self.run_app(conn)\n  File "/home/tiago/ForCA/gluon/rocket.py", line 1281, in run_app\n    self.environ = environ = self.build_environ(sock_file, conn)\n  File "/home/tiago/ForCA/gluon/rocket.py", line 1114, in build_environ\n    request = self.read_request_line(sock_file)\n  File "/home/tiago/ForCA/gluon/rocket.py", line 942, in read_request_line\n    raise SocketClosed(\'Client closed socket.\')\nSocketClosed: Client closed socket.\n'
p165
s.